target datalayout = "e-m:e-p270:32:32-p271:32:32-p272:64:64-i64:64-i128:128-f80:128-n8:16:32:64-S128"
target triple = "x86_64-unknown-linux-gnu"

%"struct.std::__detail::_List_node_header" = type { %"struct.std::__detail::_List_node_base", i64 }
%"struct.std::__detail::_List_node_base" = type { ptr, ptr }
%"class.net::QuicBufferedPacketStore" = type { %class.linked_hash_map, %"class.net::QuicTime::Delta", ptr, ptr, %"class.std::unique_ptr.15", %class.linked_hash_map.23 }
%class.linked_hash_map = type { %"class.std::unordered_map", %"class.std::__cxx11::list.10" }
%"class.std::unordered_map" = type { %"class.std::_Hashtable" }
%"class.std::_Hashtable" = type { ptr, i64, %"struct.std::__detail::_Hash_node_base", i64, %"struct.std::__detail::_Prime_rehash_policy", ptr }
%"struct.std::__detail::_Hash_node_base" = type { ptr }
%"struct.std::__detail::_Prime_rehash_policy" = type { float, i64 }
%"class.std::__cxx11::list.10" = type { %"class.std::__cxx11::_List_base.11" }
%"class.std::__cxx11::_List_base.11" = type { %"struct.std::__cxx11::_List_base<std::pair<unsigned long, net::QuicBufferedPacketStore::BufferedPacketList>, std::allocator<std::pair<unsigned long, net::QuicBufferedPacketStore::BufferedPacketList>>>::_List_impl" }
%"struct.std::__cxx11::_List_base<std::pair<unsigned long, net::QuicBufferedPacketStore::BufferedPacketList>, std::allocator<std::pair<unsigned long, net::QuicBufferedPacketStore::BufferedPacketList>>>::_List_impl" = type { %"struct.std::__detail::_List_node_header" }
%"class.net::QuicTime::Delta" = type { %"class.base::TimeDelta", i64 }
%"class.base::TimeDelta" = type { i64 }
%"class.std::unique_ptr.15" = type { %"struct.std::__uniq_ptr_data.16" }
%"struct.std::__uniq_ptr_data.16" = type { %"class.std::__uniq_ptr_impl.17" }
%"class.std::__uniq_ptr_impl.17" = type { %"class.std::tuple.18" }
%"class.std::tuple.18" = type { %"struct.std::_Tuple_impl.19" }
%"struct.std::_Tuple_impl.19" = type { %"struct.std::_Head_base.22" }
%"struct.std::_Head_base.22" = type { ptr }
%class.linked_hash_map.23 = type { %"class.std::unordered_map.24", %"class.std::__cxx11::list.38" }
%"class.std::unordered_map.24" = type { %"class.std::_Hashtable.25" }
%"class.std::_Hashtable.25" = type { ptr, i64, %"struct.std::__detail::_Hash_node_base", i64, %"struct.std::__detail::_Prime_rehash_policy", ptr }
%"class.std::__cxx11::list.38" = type { %"class.std::__cxx11::_List_base.39" }
%"class.std::__cxx11::_List_base.39" = type { %"struct.std::__cxx11::_List_base<std::pair<unsigned long, bool>, std::allocator<std::pair<unsigned long, bool>>>::_List_impl" }
%"struct.std::__cxx11::_List_base<std::pair<unsigned long, bool>, std::allocator<std::pair<unsigned long, bool>>>::_List_impl" = type { %"struct.std::__detail::_List_node_header" }

@FLAGS_quic_limit_num_new_sessions_per_epoll_loop = external global i8, align 1

; Function Attrs: mustprogress nounwind uwtable
define linkonce_odr dso_local noundef i64 @_ZNKSt7__cxx1110_List_baseISt4pairImbESaIS2_EE11_M_get_sizeEv(ptr noundef nonnull align 8 dereferenceable(24) %this) #1 comdat align 2 {
entry:
  %this.addr = alloca ptr, align 8
  store ptr %this, ptr %this.addr, align 8
  %this1 = load ptr, ptr %this.addr, align 8
  %_M_impl = getelementptr inbounds %"class.std::__cxx11::_List_base.39", ptr %this1, i32 0, i32 0
  %_M_node = getelementptr inbounds %"struct.std::__cxx11::_List_base<std::pair<unsigned long, bool>, std::allocator<std::pair<unsigned long, bool>>>::_List_impl", ptr %_M_impl, i32 0, i32 0
  %_M_size = getelementptr inbounds %"struct.std::__detail::_List_node_header", ptr %_M_node, i32 0, i32 1
  %0 = load i64, ptr %_M_size, align 8
  ret i64 %0
}

; Function Attrs: mustprogress nounwind uwtable
define linkonce_odr dso_local noundef i64 @_ZNKSt7__cxx1110_List_baseISt4pairImN3net23QuicBufferedPacketStore18BufferedPacketListEESaIS5_EE11_M_get_sizeEv(ptr noundef nonnull align 8 dereferenceable(24) %this) #1 comdat align 2 {
entry:
  %this.addr = alloca ptr, align 8
  store ptr %this, ptr %this.addr, align 8
  %this1 = load ptr, ptr %this.addr, align 8
  %_M_impl = getelementptr inbounds %"class.std::__cxx11::_List_base.11", ptr %this1, i32 0, i32 0
  %_M_node = getelementptr inbounds %"struct.std::__cxx11::_List_base<std::pair<unsigned long, net::QuicBufferedPacketStore::BufferedPacketList>, std::allocator<std::pair<unsigned long, net::QuicBufferedPacketStore::BufferedPacketList>>>::_List_impl", ptr %_M_impl, i32 0, i32 0
  %_M_size = getelementptr inbounds %"struct.std::__detail::_List_node_header", ptr %_M_node, i32 0, i32 1
  %0 = load i64, ptr %_M_size, align 8
  ret i64 %0
}

; Function Attrs: mustprogress uwtable
define linkonce_odr dso_local noundef i64 @_ZNKSt7__cxx114listISt4pairImbESaIS2_EE13_M_node_countEv(ptr noundef nonnull align 8 dereferenceable(24) %this) #0 comdat align 2 {
entry:
  %this.addr = alloca ptr, align 8
  store ptr %this, ptr %this.addr, align 8
  %this1 = load ptr, ptr %this.addr, align 8
  %call = call noundef i64 @_ZNKSt7__cxx1110_List_baseISt4pairImbESaIS2_EE11_M_get_sizeEv(ptr noundef nonnull align 8 dereferenceable(24) %this1)
  ret i64 %call
}

; Function Attrs: noreturn nounwind uwtable
define linkonce_odr hidden void @__clang_call_terminate(ptr noundef %0) #8 comdat {
  %2 = call ptr @__cxa_begin_catch(ptr %0) #12
  call void @_ZSt9terminatev() #15
  unreachable
}

; Function Attrs: mustprogress uwtable
define linkonce_odr dso_local noundef i64 @_ZNKSt7__cxx114listISt4pairImN3net23QuicBufferedPacketStore18BufferedPacketListEESaIS5_EE13_M_node_countEv(ptr noundef nonnull align 8 dereferenceable(24) %this) #0 comdat align 2 {
entry:
  %this.addr = alloca ptr, align 8
  store ptr %this, ptr %this.addr, align 8
  %this1 = load ptr, ptr %this.addr, align 8
  %call = call noundef i64 @_ZNKSt7__cxx1110_List_baseISt4pairImN3net23QuicBufferedPacketStore18BufferedPacketListEESaIS5_EE11_M_get_sizeEv(ptr noundef nonnull align 8 dereferenceable(24) %this1)
  ret i64 %call
}

; Function Attrs: mustprogress nounwind uwtable
define linkonce_odr dso_local noundef i64 @_ZNKSt7__cxx114listISt4pairImbESaIS2_EE4sizeEv(ptr noundef nonnull align 8 dereferenceable(24) %this) #1 comdat align 2 personality ptr @__gxx_personality_v0 {
entry:
  %this.addr = alloca ptr, align 8
  store ptr %this, ptr %this.addr, align 8
  %this1 = load ptr, ptr %this.addr, align 8
  %call = invoke noundef i64 @_ZNKSt7__cxx114listISt4pairImbESaIS2_EE13_M_node_countEv(ptr noundef nonnull align 8 dereferenceable(24) %this1)
          to label %invoke.cont unwind label %terminate.lpad

invoke.cont:                                      ; preds = %entry
  ret i64 %call

terminate.lpad:                                   ; preds = %entry
  %0 = landingpad { ptr, i32 }
          catch ptr null
  %1 = extractvalue { ptr, i32 } %0, 0
  call void @__clang_call_terminate(ptr %1) #15
  unreachable
}

; Function Attrs: mustprogress nounwind uwtable
define linkonce_odr dso_local noundef i64 @_ZNKSt7__cxx114listISt4pairImN3net23QuicBufferedPacketStore18BufferedPacketListEESaIS5_EE4sizeEv(ptr noundef nonnull align 8 dereferenceable(24) %this) #1 comdat align 2 personality ptr @__gxx_personality_v0 {
entry:
  %this.addr = alloca ptr, align 8
  store ptr %this, ptr %this.addr, align 8
  %this1 = load ptr, ptr %this.addr, align 8
  %call = invoke noundef i64 @_ZNKSt7__cxx114listISt4pairImN3net23QuicBufferedPacketStore18BufferedPacketListEESaIS5_EE13_M_node_countEv(ptr noundef nonnull align 8 dereferenceable(24) %this1)
          to label %invoke.cont unwind label %terminate.lpad

invoke.cont:                                      ; preds = %entry
  ret i64 %call

terminate.lpad:                                   ; preds = %entry
  %0 = landingpad { ptr, i32 }
          catch ptr null
  %1 = extractvalue { ptr, i32 } %0, 0
  call void @__clang_call_terminate(ptr %1) #15
  unreachable
}

; Function Attrs: mustprogress nounwind uwtable
define linkonce_odr dso_local noundef i64 @_ZNK15linked_hash_mapImbSt4hashImEE4sizeEv(ptr noundef nonnull align 8 dereferenceable(80) %this) #1 comdat align 2 {
entry:
  %this.addr = alloca ptr, align 8
  store ptr %this, ptr %this.addr, align 8
  %this1 = load ptr, ptr %this.addr, align 8
  %list_ = getelementptr inbounds %class.linked_hash_map.23, ptr %this1, i32 0, i32 1
  %call = call noundef i64 @_ZNKSt7__cxx114listISt4pairImbESaIS2_EE4sizeEv(ptr noundef nonnull align 8 dereferenceable(24) %list_) #12
  ret i64 %call
}

; Function Attrs: mustprogress nounwind uwtable
define linkonce_odr dso_local noundef i64 @_ZNK15linked_hash_mapImN3net23QuicBufferedPacketStore18BufferedPacketListESt4hashImEE4sizeEv(ptr noundef nonnull align 8 dereferenceable(80) %this) #1 comdat align 2 {
entry:
  %this.addr = alloca ptr, align 8
  store ptr %this, ptr %this.addr, align 8
  %this1 = load ptr, ptr %this.addr, align 8
  %list_ = getelementptr inbounds %class.linked_hash_map, ptr %this1, i32 0, i32 1
  %call = call noundef i64 @_ZNKSt7__cxx114listISt4pairImN3net23QuicBufferedPacketStore18BufferedPacketListEESaIS5_EE4sizeEv(ptr noundef nonnull align 8 dereferenceable(24) %list_) #12
  ret i64 %call
}

; Function Attrs: mustprogress uwtable
define dso_local noundef zeroext i1 @_ZN3net23QuicBufferedPacketStore18ShouldBufferPacketEb(ptr noundef nonnull align 8 dereferenceable(200) %this, i1 noundef zeroext %is_chlo) #0 align 2 {
entry:
  %retval = alloca i1, align 1
  %this.addr = alloca ptr, align 8
  %is_chlo.addr = alloca i8, align 1
  %is_store_full = alloca i8, align 1
  %num_connections_without_chlo = alloca i64, align 8
  %reach_non_chlo_limit = alloca i8, align 1
  store ptr %this, ptr %this.addr, align 8
  %frombool = zext i1 %is_chlo to i8
  store i8 %frombool, ptr %is_chlo.addr, align 1
  %this1 = load ptr, ptr %this.addr, align 8
  %undecryptable_packets_ = getelementptr inbounds %"class.net::QuicBufferedPacketStore", ptr %this1, i32 0, i32 0
  %call = call noundef i64 @_ZNK15linked_hash_mapImN3net23QuicBufferedPacketStore18BufferedPacketListESt4hashImEE4sizeEv(ptr noundef nonnull align 8 dereferenceable(80) %undecryptable_packets_)
  %cmp = icmp uge i64 %call, 100
  %frombool2 = zext i1 %cmp to i8
  store i8 %frombool2, ptr %is_store_full, align 1
  %0 = load i8, ptr %is_chlo.addr, align 1
  %tobool = trunc i8 %0 to i1
  br i1 %tobool, label %if.then, label %if.end

if.then:                                          ; preds = %entry
  %1 = load i8, ptr %is_store_full, align 1
  %tobool3 = trunc i8 %1 to i1
  store i1 %tobool3, ptr %retval, align 1
  br label %return

if.end:                                           ; preds = %entry
  %undecryptable_packets_4 = getelementptr inbounds %"class.net::QuicBufferedPacketStore", ptr %this1, i32 0, i32 0
  %call5 = call noundef i64 @_ZNK15linked_hash_mapImN3net23QuicBufferedPacketStore18BufferedPacketListESt4hashImEE4sizeEv(ptr noundef nonnull align 8 dereferenceable(80) %undecryptable_packets_4)
  %connections_with_chlo_ = getelementptr inbounds %"class.net::QuicBufferedPacketStore", ptr %this1, i32 0, i32 5
  %call6 = call noundef i64 @_ZNK15linked_hash_mapImbSt4hashImEE4sizeEv(ptr noundef nonnull align 8 dereferenceable(80) %connections_with_chlo_)
  %sub = sub i64 %call5, %call6
  store i64 %sub, ptr %num_connections_without_chlo, align 8
  %2 = load i8, ptr @FLAGS_quic_limit_num_new_sessions_per_epoll_loop, align 1
  %tobool7 = trunc i8 %2 to i1
  br i1 %tobool7, label %land.rhs, label %land.end

land.rhs:                                         ; preds = %if.end
  %3 = load i64, ptr %num_connections_without_chlo, align 8
  %cmp8 = icmp uge i64 %3, 50
  br label %land.end

land.end:                                         ; preds = %land.rhs, %if.end
  %4 = phi i1 [ false, %if.end ], [ %cmp8, %land.rhs ]
  %frombool9 = zext i1 %4 to i8
  store i8 %frombool9, ptr %reach_non_chlo_limit, align 1
  %5 = load i8, ptr %is_store_full, align 1
  %tobool10 = trunc i8 %5 to i1
  br i1 %tobool10, label %lor.end, label %lor.rhs

lor.rhs:                                          ; preds = %land.end
  %6 = load i8, ptr %reach_non_chlo_limit, align 1
  %tobool11 = trunc i8 %6 to i1
  br label %lor.end

lor.end:                                          ; preds = %lor.rhs, %land.end
  %7 = phi i1 [ true, %land.end ], [ %tobool11, %lor.rhs ]
  store i1 %7, ptr %retval, align 1
  br label %return

return:                                           ; preds = %lor.end, %if.then
  %8 = load i1, ptr %retval, align 1
  ret i1 %8
}