; Function Attrs: mustprogress nofree norecurse nosync nounwind willreturn memory(read, inaccessiblemem: none) uwtable
define dso_local noundef zeroext i1 @_ZN3net23QuicBufferedPacketStore18ShouldBufferPacketEb(ptr nocapture noundef nonnull readonly align 8 dereferenceable(200) %this, i1 noundef zeroext %is_chlo) local_unnamed_addr #9 align 2 personality ptr @__gxx_personality_v0 {
entry:
  %_M_size.i.i.i.i = getelementptr inbounds i8, ptr %this, i64 72
  %0 = load i64, ptr %_M_size.i.i.i.i, align 8
  %cmp = icmp ugt i64 %0, 99
  br i1 %is_chlo, label %return, label %if.end

if.end:                                           ; preds = %entry
  %_M_size.i.i.i.i3 = getelementptr inbounds i8, ptr %this, i64 192
  %1 = load i64, ptr %_M_size.i.i.i.i3, align 8
  %sub = sub i64 %0, %1
  %2 = load i8, ptr @FLAGS_quic_limit_num_new_sessions_per_epoll_loop, align 1
  %3 = and i8 %2, 1
  %tobool7 = icmp ne i8 %3, 0
  %cmp8 = icmp ugt i64 %sub, 49
  %4 = and i1 %cmp8, %tobool7
  %5 = select i1 %cmp, i1 true, i1 %4
  br label %return

return:                                           ; preds = %entry, %if.end
  %retval.0 = phi i1 [ %5, %if.end ], [ %cmp, %entry ]
  ret i1 %retval.0
}